target datalayout = "e-m:e-p270:32:32-p271:32:32-p272:64:64-i64:64-i128:128-f80:128-n8:16:32:64-S128"
target triple = "x86_64-unknown-linux-gnu"

; Function Attrs: mustprogress uwtable
define void @_ZN6icu_7514TaiwanCalendarC2ERKNS_6LocaleER10UErrorCode(ptr noundef nonnull align 8 dereferenceable(654) %this, ptr noundef nonnull align 8 dereferenceable(217) %aLocale, ptr noundef nonnull align 4 dereferenceable(4) %success) unnamed_addr #1 align 2 personality ptr @__gxx_personality_v0 {
entry:
  %this.addr = alloca ptr, align 8
  %aLocale.addr = alloca ptr, align 8
  %success.addr = alloca ptr, align 8
  %exn.slot = alloca ptr, align 8
  %ehselector.slot = alloca i32, align 4
  store ptr %this, ptr %this.addr, align 8
  store ptr %aLocale, ptr %aLocale.addr, align 8
  store ptr %success, ptr %success.addr, align 8
  %this1 = load ptr, ptr %this.addr, align 8
  %0 = load ptr, ptr %aLocale.addr, align 8
  %1 = load ptr, ptr %success.addr, align 8
  call void @_ZN6icu_7517GregorianCalendarC2ERKNS_6LocaleER10UErrorCode(ptr noundef nonnull align 8 dereferenceable(654) %this1, ptr noundef nonnull align 8 dereferenceable(217) %0, ptr noundef nonnull align 4 dereferenceable(4) %1)
  store ptr getelementptr inbounds ({ [61 x ptr] }, ptr @_ZTVN6icu_7514TaiwanCalendarE, i32 0, i32 0, i32 2), ptr %this1, align 8
  %call = invoke noundef double @_ZN6icu_758Calendar6getNowEv()
          to label %invoke.cont unwind label %lpad

invoke.cont:                                      ; preds = %entry
  %2 = load ptr, ptr %success.addr, align 8
  invoke void @_ZN6icu_758Calendar15setTimeInMillisEdR10UErrorCode(ptr noundef nonnull align 8 dereferenceable(618) %this1, double noundef %call, ptr noundef nonnull align 4 dereferenceable(4) %2)
          to label %invoke.cont2 unwind label %lpad

invoke.cont2:                                     ; preds = %invoke.cont
  ret void

lpad:                                             ; preds = %invoke.cont, %entry
  %3 = landingpad { ptr, i32 }
          cleanup
  %4 = extractvalue { ptr, i32 } %3, 0
  store ptr %4, ptr %exn.slot, align 8
  %5 = extractvalue { ptr, i32 } %3, 1
  store i32 %5, ptr %ehselector.slot, align 4
  call void @_ZN6icu_7517GregorianCalendarD2Ev(ptr noundef nonnull align 8 dereferenceable(654) %this1) #5
  br label %eh.resume

eh.resume:                                        ; preds = %lpad
  %exn = load ptr, ptr %exn.slot, align 8
  %sel = load i32, ptr %ehselector.slot, align 4
  %lpad.val = insertvalue { ptr, i32 } poison, ptr %exn, 0
  %lpad.val3 = insertvalue { ptr, i32 } %lpad.val, i32 %sel, 1
  resume { ptr, i32 } %lpad.val3
}